target datalayout = "e-m:e-p270:32:32-p271:32:32-p272:64:64-i64:64-i128:128-f80:128-n8:16:32:64-S128"
target triple = "x86_64-pc-linux-gnu"

%"class.std::__shared_count" = type { ptr }
%"class.std::__cxx11::basic_string" = type { %"struct.std::__cxx11::basic_string<char>::_Alloc_hider", i64, %union.anon }
%"struct.std::__cxx11::basic_string<char>::_Alloc_hider" = type { ptr }
%union.anon = type { i64, [8 x i8] }
%"class.std::vector" = type { %"struct.std::_Vector_base" }
%"struct.std::_Vector_base" = type { %"struct.std::_Vector_base<std::__cxx11::basic_string<char>, std::allocator<std::__cxx11::basic_string<char>>>::_Vector_impl" }
%"struct.std::_Vector_base<std::__cxx11::basic_string<char>, std::allocator<std::__cxx11::basic_string<char>>>::_Vector_impl" = type { %"struct.std::_Vector_base<std::__cxx11::basic_string<char>, std::allocator<std::__cxx11::basic_string<char>>>::_Vector_impl_data" }
%"struct.std::_Vector_base<std::__cxx11::basic_string<char>, std::allocator<std::__cxx11::basic_string<char>>>::_Vector_impl_data" = type { ptr, ptr, ptr }
%"class.std::shared_ptr.3" = type { %"class.std::__shared_ptr.4" }
%"class.std::__shared_ptr.4" = type { ptr, %"class.std::__shared_count" }
%"class.OpenColorIO_v2_5dev::ColorSpaceMenuParametersImpl" = type { %"class.OpenColorIO_v2_5dev::ColorSpaceMenuParameters", %"class.std::shared_ptr.3", %"class.std::__cxx11::basic_string", %"class.std::__cxx11::basic_string", %"class.std::__cxx11::basic_string", %"class.std::__cxx11::basic_string", i8, i8, i8, i32, %"class.std::vector" }
%"class.OpenColorIO_v2_5dev::ColorSpaceMenuParameters" = type { ptr }
%"class.OpenColorIO_v2_5dev::ColorSpaceMenuHelperImpl" = type { %"class.OpenColorIO_v2_5dev::ColorSpaceMenuHelper", %"class.OpenColorIO_v2_5dev::ColorSpaceMenuParametersImpl", %"class.std::vector.22" }
%"class.OpenColorIO_v2_5dev::ColorSpaceMenuHelper" = type { ptr }
%"class.std::vector.22" = type { %"struct.std::_Vector_base.23" }
%"struct.std::_Vector_base.23" = type { %"struct.std::_Vector_base<std::shared_ptr<const OpenColorIO_v2_5dev::ColorSpaceInfo>, std::allocator<std::shared_ptr<const OpenColorIO_v2_5dev::ColorSpaceInfo>>>::_Vector_impl" }
%"struct.std::_Vector_base<std::shared_ptr<const OpenColorIO_v2_5dev::ColorSpaceInfo>, std::allocator<std::shared_ptr<const OpenColorIO_v2_5dev::ColorSpaceInfo>>>::_Vector_impl" = type { %"struct.std::_Vector_base<std::shared_ptr<const OpenColorIO_v2_5dev::ColorSpaceInfo>, std::allocator<std::shared_ptr<const OpenColorIO_v2_5dev::ColorSpaceInfo>>>::_Vector_impl_data" }
%"struct.std::_Vector_base<std::shared_ptr<const OpenColorIO_v2_5dev::ColorSpaceInfo>, std::allocator<std::shared_ptr<const OpenColorIO_v2_5dev::ColorSpaceInfo>>>::_Vector_impl_data" = type { ptr, ptr, ptr }

; Function Attrs: mustprogress nounwind uwtable
define linkonce_odr hidden noundef i64 @_ZNKSt6vectorISt10shared_ptrIKN19OpenColorIO_v2_5dev14ColorSpaceInfoEESaIS4_EE4sizeEv(ptr noundef nonnull align 8 dereferenceable(24) %0) #4 comdat align 2 {
  %2 = alloca ptr, align 8
  store ptr %0, ptr %2, align 8, !tbaa !133
  %3 = load ptr, ptr %2, align 8
  %4 = getelementptr inbounds nuw %"struct.std::_Vector_base.23", ptr %3, i32 0, i32 0
  %5 = getelementptr inbounds nuw %"struct.std::_Vector_base<std::shared_ptr<const OpenColorIO_v2_5dev::ColorSpaceInfo>, std::allocator<std::shared_ptr<const OpenColorIO_v2_5dev::ColorSpaceInfo>>>::_Vector_impl_data", ptr %4, i32 0, i32 1
  %6 = load ptr, ptr %5, align 8, !tbaa !149
  %7 = getelementptr inbounds nuw %"struct.std::_Vector_base.23", ptr %3, i32 0, i32 0
  %8 = getelementptr inbounds nuw %"struct.std::_Vector_base<std::shared_ptr<const OpenColorIO_v2_5dev::ColorSpaceInfo>, std::allocator<std::shared_ptr<const OpenColorIO_v2_5dev::ColorSpaceInfo>>>::_Vector_impl_data", ptr %7, i32 0, i32 0
  %9 = load ptr, ptr %8, align 8, !tbaa !148
  %10 = ptrtoint ptr %6 to i64
  %11 = ptrtoint ptr %9 to i64
  %12 = sub i64 %10, %11
  %13 = sdiv exact i64 %12, 16
  ret i64 %13
}

; Function Attrs: mustprogress nounwind uwtable
define hidden noundef i64 @_ZNK19OpenColorIO_v2_5dev24ColorSpaceMenuHelperImpl17getNumColorSpacesEv(ptr noundef nonnull align 8 dereferenceable(216) %0) unnamed_addr #4 align 2 {
  %2 = alloca ptr, align 8
  store ptr %0, ptr %2, align 8, !tbaa !127
  %3 = load ptr, ptr %2, align 8
  %4 = getelementptr inbounds nuw %"class.OpenColorIO_v2_5dev::ColorSpaceMenuHelperImpl", ptr %3, i32 0, i32 2
  %5 = call noundef i64 @_ZNKSt6vectorISt10shared_ptrIKN19OpenColorIO_v2_5dev14ColorSpaceInfoEESaIS4_EE4sizeEv(ptr noundef nonnull align 8 dereferenceable(24) %4) #12
  ret i64 %5
}